; Function Attrs: mustprogress nofree norecurse nosync nounwind willreturn memory(read, argmem: readwrite, inaccessiblemem: none) uwtable
define dso_local range(i32 -1, 1) i32 @unpack16(ptr noundef writeonly captures(none) %0, ptr noundef captures(none) %1) #1 {
  %3 = getelementptr inbounds nuw i8, ptr %1, i64 16
  %4 = load i32, ptr %3, align 8
  %5 = getelementptr inbounds nuw i8, ptr %1, i64 20
  %6 = load i32, ptr %5, align 4
  %7 = sub i32 %4, %6
  %8 = icmp ult i32 %7, 2
  br i1 %8, label %16, label %9

9:                                                ; preds = %2
  %10 = getelementptr inbounds nuw i8, ptr %1, i64 8
  %11 = load ptr, ptr %10, align 8
  %12 = zext i32 %6 to i64
  %13 = getelementptr inbounds nuw i8, ptr %11, i64 %12
  %.0.copyload = load i16, ptr %13, align 1
  %rev.i = tail call noundef i16 @llvm.bswap.i16(i16 %.0.copyload)
  store i16 %rev.i, ptr %0, align 2
  %14 = load i32, ptr %5, align 4
  %15 = add i32 %14, 2
  store i32 %15, ptr %5, align 4
  br label %16

16:                                               ; preds = %2, %9
  %.0 = phi i32 [ 0, %9 ], [ -1, %2 ]
  ret i32 %.0
}